target datalayout = "e-m:e-p270:32:32-p271:32:32-p272:64:64-i64:64-i128:128-f80:128-n8:16:32:64-S128"
target triple = "x86_64-pc-linux-gnu"

%"class.std::mersenne_twister_engine" = type { [624 x i64], i64 }
%"class.std::random_device" = type { %union.anon.48 }
%union.anon.48 = type { %"class.std::mersenne_twister_engine" }
%"class.std::chrono::duration" = type { i64 }
%"class.std::chrono::time_point" = type { %"class.std::chrono::duration" }

@_ZZL12get_rng_seedjE10is_rd_prng = internal global i8 0, align 1
@_ZGVZL12get_rng_seedjE10is_rd_prng = internal global i64 0, align 8

; Function Attrs: mustprogress uwtable
define linkonce_odr noundef i32 @_ZNSt13random_deviceclEv(ptr noundef nonnull align 8 dereferenceable(5000) %0) #0 comdat align 2 {
  %2 = alloca ptr, align 8
  store ptr %0, ptr %2, align 8, !tbaa !271
  %3 = load ptr, ptr %2, align 8
  %4 = call noundef i32 @_ZNSt13random_device9_M_getvalEv(ptr noundef nonnull align 8 dereferenceable(5000) %3)
  ret i32 %4
}

; Function Attrs: mustprogress nounwind uwtable
define linkonce_odr noundef i64 @_ZNKSt6chrono8durationIlSt5ratioILl1ELl1000000000EEE5countEv(ptr noundef nonnull align 8 dereferenceable(8) %0) #6 comdat align 2 {
  %2 = alloca ptr, align 8
  store ptr %0, ptr %2, align 8, !tbaa !276
  %3 = load ptr, ptr %2, align 8
  %4 = getelementptr inbounds nuw %"class.std::chrono::duration", ptr %3, i32 0, i32 0
  %5 = load i64, ptr %4, align 8, !tbaa !278
  ret i64 %5
}

; Function Attrs: mustprogress nounwind uwtable
define linkonce_odr i64 @_ZNKSt6chrono10time_pointINS_3_V212system_clockENS_8durationIlSt5ratioILl1ELl1000000000EEEEE16time_since_epochEv(ptr noundef nonnull align 8 dereferenceable(8) %0) #6 comdat align 2 {
  %2 = alloca %"class.std::chrono::duration", align 8
  %3 = alloca ptr, align 8
  store ptr %0, ptr %3, align 8, !tbaa !273
  %4 = load ptr, ptr %3, align 8
  %5 = getelementptr inbounds nuw %"class.std::chrono::time_point", ptr %4, i32 0, i32 0
  call void @llvm.memcpy.p0.p0.i64(ptr align 8 %2, ptr align 8 %5, i64 8, i1 false), !tbaa.struct !275
  %6 = getelementptr inbounds nuw %"class.std::chrono::duration", ptr %2, i32 0, i32 0
  %7 = load i64, ptr %6, align 8
  ret i64 %7
}

; Function Attrs: mustprogress nounwind uwtable
define linkonce_odr void @_ZNSt13random_deviceD2Ev(ptr noundef nonnull align 8 dereferenceable(5000) %0) unnamed_addr #6 comdat align 2 personality ptr @__gxx_personality_v0 {
  %2 = alloca ptr, align 8
  store ptr %0, ptr %2, align 8, !tbaa !271
  %3 = load ptr, ptr %2, align 8
  invoke void @_ZNSt13random_device7_M_finiEv(ptr noundef nonnull align 8 dereferenceable(5000) %3)
          to label %4 unwind label %5

4:                                                ; preds = %1
  ret void

5:                                                ; preds = %1
  %6 = landingpad { ptr, i32 }
          catch ptr null
  %7 = extractvalue { ptr, i32 } %6, 0
  call void @__clang_call_terminate(ptr %7) #22
  unreachable
}

; Function Attrs: mustprogress nounwind uwtable
define linkonce_odr noundef double @_ZNKSt13random_device7entropyEv(ptr noundef nonnull align 8 dereferenceable(5000) %0) #6 comdat align 2 {
  %2 = alloca ptr, align 8
  store ptr %0, ptr %2, align 8, !tbaa !271
  %3 = load ptr, ptr %2, align 8
  %4 = call noundef double @_ZNKSt13random_device13_M_getentropyEv(ptr noundef nonnull align 8 dereferenceable(5000) %3) #14
  ret double %4
}

; Function Attrs: mustprogress uwtable
define internal noundef i32 @_ZL12get_rng_seedj(i32 noundef %0) #0 personality ptr @__gxx_personality_v0 {
  %2 = alloca i32, align 4
  %3 = alloca i32, align 4
  %4 = alloca %"class.std::random_device", align 8
  %5 = alloca ptr, align 8
  %6 = alloca i32, align 4
  %7 = alloca %"class.std::chrono::duration", align 8
  %8 = alloca %"class.std::chrono::time_point", align 8
  %9 = alloca %"class.std::random_device", align 8
  store i32 %0, ptr %3, align 4, !tbaa !16
  %10 = load i32, ptr %3, align 4, !tbaa !16
  %11 = icmp eq i32 %10, -1
  br i1 %11, label %12, label %45

12:                                               ; preds = %1
  %13 = load atomic i8, ptr @_ZGVZL12get_rng_seedjE10is_rd_prng acquire, align 8
  %14 = icmp eq i8 %13, 0
  br i1 %14, label %15, label %23, !prof !89

15:                                               ; preds = %12
  %16 = call i32 @__cxa_guard_acquire(ptr @_ZGVZL12get_rng_seedjE10is_rd_prng) #14
  %17 = icmp ne i32 %16, 0
  br i1 %17, label %18, label %23

18:                                               ; preds = %15
  call void @llvm.lifetime.start.p0(i64 5000, ptr %4) #14
  invoke void @_ZNSt13random_deviceC2Ev(ptr noundef nonnull align 8 dereferenceable(5000) %4)
          to label %19 unwind label %34

19:                                               ; preds = %18
  %20 = call noundef double @_ZNKSt13random_device7entropyEv(ptr noundef nonnull align 8 dereferenceable(5000) %4) #14
  %21 = fcmp oeq double %20, 0.000000e+00
  call void @_ZNSt13random_deviceD2Ev(ptr noundef nonnull align 8 dereferenceable(5000) %4) #14
  call void @llvm.lifetime.end.p0(i64 5000, ptr %4) #14
  %22 = zext i1 %21 to i8
  store i8 %22, ptr @_ZZL12get_rng_seedjE10is_rd_prng, align 1, !tbaa !58
  call void @__cxa_guard_release(ptr @_ZGVZL12get_rng_seedjE10is_rd_prng) #14
  br label %23

23:                                               ; preds = %19, %15, %12
  %24 = load i8, ptr @_ZZL12get_rng_seedjE10is_rd_prng, align 1, !tbaa !58, !range !90, !noundef !91
  %25 = trunc i8 %24 to i1
  br i1 %25, label %26, label %38

26:                                               ; preds = %23
  call void @llvm.lifetime.start.p0(i64 8, ptr %7) #14
  call void @llvm.lifetime.start.p0(i64 8, ptr %8) #14
  %27 = call i64 @_ZNSt6chrono3_V212system_clock3nowEv() #14
  %28 = getelementptr inbounds nuw %"class.std::chrono::time_point", ptr %8, i32 0, i32 0
  %29 = getelementptr inbounds nuw %"class.std::chrono::duration", ptr %28, i32 0, i32 0
  store i64 %27, ptr %29, align 8
  %30 = call i64 @_ZNKSt6chrono10time_pointINS_3_V212system_clockENS_8durationIlSt5ratioILl1ELl1000000000EEEEE16time_since_epochEv(ptr noundef nonnull align 8 dereferenceable(8) %8)
  %31 = getelementptr inbounds nuw %"class.std::chrono::duration", ptr %7, i32 0, i32 0
  store i64 %30, ptr %31, align 8
  %32 = call noundef i64 @_ZNKSt6chrono8durationIlSt5ratioILl1ELl1000000000EEE5countEv(ptr noundef nonnull align 8 dereferenceable(8) %7)
  %33 = trunc i64 %32 to i32
  store i32 %33, ptr %2, align 4
  call void @llvm.lifetime.end.p0(i64 8, ptr %8) #14
  call void @llvm.lifetime.end.p0(i64 8, ptr %7) #14
  br label %47

34:                                               ; preds = %18
  %35 = landingpad { ptr, i32 }
          cleanup
  %36 = extractvalue { ptr, i32 } %35, 0
  store ptr %36, ptr %5, align 8
  %37 = extractvalue { ptr, i32 } %35, 1
  store i32 %37, ptr %6, align 4
  call void @llvm.lifetime.end.p0(i64 5000, ptr %4) #14
  call void @__cxa_guard_abort(ptr @_ZGVZL12get_rng_seedjE10is_rd_prng) #14
  br label %49

38:                                               ; preds = %23
  call void @llvm.lifetime.start.p0(i64 5000, ptr %9) #14
  call void @_ZNSt13random_deviceC2Ev(ptr noundef nonnull align 8 dereferenceable(5000) %9)
  %39 = invoke noundef i32 @_ZNSt13random_deviceclEv(ptr noundef nonnull align 8 dereferenceable(5000) %9)
          to label %40 unwind label %41

40:                                               ; preds = %38
  store i32 %39, ptr %2, align 4
  call void @_ZNSt13random_deviceD2Ev(ptr noundef nonnull align 8 dereferenceable(5000) %9) #14
  call void @llvm.lifetime.end.p0(i64 5000, ptr %9) #14
  br label %47

41:                                               ; preds = %38
  %42 = landingpad { ptr, i32 }
          cleanup
  %43 = extractvalue { ptr, i32 } %42, 0
  store ptr %43, ptr %5, align 8
  %44 = extractvalue { ptr, i32 } %42, 1
  store i32 %44, ptr %6, align 4
  call void @_ZNSt13random_deviceD2Ev(ptr noundef nonnull align 8 dereferenceable(5000) %9) #14
  call void @llvm.lifetime.end.p0(i64 5000, ptr %9) #14
  br label %49

45:                                               ; preds = %1
  %46 = load i32, ptr %3, align 4, !tbaa !16
  store i32 %46, ptr %2, align 4
  br label %47

47:                                               ; preds = %45, %40, %26
  %48 = load i32, ptr %2, align 4
  ret i32 %48

49:                                               ; preds = %41, %34
  %50 = load ptr, ptr %5, align 8
  %51 = load i32, ptr %6, align 4
  %52 = insertvalue { ptr, i32 } poison, ptr %50, 0
  %53 = insertvalue { ptr, i32 } %52, i32 %51, 1
  resume { ptr, i32 } %53
}