; Function Attrs: mustprogress uwtable
define internal fastcc noundef i32 @_ZL12get_rng_seedj(i32 noundef %0) unnamed_addr #0 personality ptr @__gxx_personality_v0 {
  %2 = alloca %"class.std::__cxx11::basic_string", align 8
  %3 = alloca %"class.std::random_device", align 8
  %4 = alloca %"class.std::random_device", align 8
  %5 = icmp eq i32 %0, -1
  br i1 %5, label %6, label %55

6:                                                ; preds = %1
  %7 = load atomic i8, ptr @_ZGVZL12get_rng_seedjE10is_rd_prng acquire, align 8
  %8 = icmp eq i8 %7, 0
  br i1 %8, label %9, label %19, !prof !49

9:                                                ; preds = %6
  %10 = tail call i32 @__cxa_guard_acquire(ptr nonnull @_ZGVZL12get_rng_seedjE10is_rd_prng) #33
  %.not = icmp eq i32 %10, 0
  br i1 %.not, label %19, label %11

11:                                               ; preds = %9
  call void @llvm.lifetime.start.p0(i64 5000, ptr nonnull %3) #33
  invoke void @_ZNSt13random_deviceC2Ev(ptr noundef nonnull align 8 dereferenceable(5000) %3)
          to label %12 unwind label %25

12:                                               ; preds = %11
  %13 = call noundef double @_ZNKSt13random_device13_M_getentropyEv(ptr noundef nonnull align 8 dereferenceable(5000) %3) #33
  invoke void @_ZNSt13random_device7_M_finiEv(ptr noundef nonnull align 8 dereferenceable(5000) %3)
          to label %_ZNSt13random_deviceD2Ev.exit unwind label %14

14:                                               ; preds = %12
  %15 = landingpad { ptr, i32 }
          catch ptr null
  %16 = extractvalue { ptr, i32 } %15, 0
  call void @__clang_call_terminate(ptr %16) #34
  unreachable

_ZNSt13random_deviceD2Ev.exit:                    ; preds = %12
  %17 = fcmp oeq double %13, 0.000000e+00
  call void @llvm.lifetime.end.p0(i64 5000, ptr nonnull %3) #33
  %18 = zext i1 %17 to i8
  store i8 %18, ptr @_ZZL12get_rng_seedjE10is_rd_prng, align 1, !tbaa !33
  call void @__cxa_guard_release(ptr nonnull @_ZGVZL12get_rng_seedjE10is_rd_prng) #33
  br label %19

19:                                               ; preds = %_ZNSt13random_deviceD2Ev.exit, %9, %6
  %20 = load i8, ptr @_ZZL12get_rng_seedjE10is_rd_prng, align 1, !tbaa !33, !range !50, !noundef !51
  %21 = trunc nuw i8 %20 to i1
  br i1 %21, label %22, label %27

22:                                               ; preds = %19
  %23 = call i64 @_ZNSt6chrono3_V212system_clock3nowEv() #33
  %24 = trunc i64 %23 to i32
  br label %55

25:                                               ; preds = %11
  %26 = landingpad { ptr, i32 }
          cleanup
  call void @llvm.lifetime.end.p0(i64 5000, ptr nonnull %3) #33
  call void @__cxa_guard_abort(ptr nonnull @_ZGVZL12get_rng_seedjE10is_rd_prng) #33
  br label %common.resume

27:                                               ; preds = %19
  call void @llvm.lifetime.start.p0(i64 5000, ptr nonnull %4) #33
  call void @llvm.lifetime.start.p0(i64 32, ptr nonnull %2) #33
  %28 = getelementptr inbounds nuw i8, ptr %2, i64 16
  store ptr %28, ptr %2, align 8, !tbaa !52
  call void @llvm.memcpy.p0.p0.i64(ptr noundef nonnull align 8 dereferenceable(7) %28, ptr noundef nonnull align 1 dereferenceable(7) @.str.16, i64 7, i1 false)
  %29 = getelementptr inbounds nuw i8, ptr %2, i64 8
  store i64 7, ptr %29, align 8, !tbaa !55
  %30 = getelementptr inbounds nuw i8, ptr %2, i64 23
  store i8 0, ptr %30, align 1, !tbaa !57
  invoke void @_ZNSt13random_device7_M_initERKNSt7__cxx1112basic_stringIcSt11char_traitsIcESaIcEEE(ptr noundef nonnull align 8 dereferenceable(5000) %4, ptr noundef nonnull align 8 dereferenceable(32) %2)
          to label %31 unwind label %38

31:                                               ; preds = %27
  %32 = load ptr, ptr %2, align 8, !tbaa !58
  %33 = icmp eq ptr %32, %28
  br i1 %33, label %_ZNKSt7__cxx1112basic_stringIcSt11char_traitsIcESaIcEE11_M_is_localEv.exit.thread.i.i.i, label %_ZNKSt7__cxx1112basic_stringIcSt11char_traitsIcESaIcEE11_M_is_localEv.exit.i.i.i

_ZNKSt7__cxx1112basic_stringIcSt11char_traitsIcESaIcEE11_M_is_localEv.exit.thread.i.i.i: ; preds = %31
  %34 = load i64, ptr %29, align 8, !tbaa !55
  %35 = icmp ult i64 %34, 16
  call void @llvm.assume(i1 %35)
  br label %_ZNSt13random_deviceC2Ev.exit

_ZNKSt7__cxx1112basic_stringIcSt11char_traitsIcESaIcEE11_M_is_localEv.exit.i.i.i: ; preds = %31
  %36 = load i64, ptr %28, align 8, !tbaa !57
  %37 = add i64 %36, 1
  call void @_ZdlPvm(ptr noundef %32, i64 noundef %37) #32
  br label %_ZNSt13random_deviceC2Ev.exit

38:                                               ; preds = %27
  %39 = landingpad { ptr, i32 }
          cleanup
  %40 = load ptr, ptr %2, align 8, !tbaa !58
  %41 = icmp eq ptr %40, %28
  br i1 %41, label %_ZNKSt7__cxx1112basic_stringIcSt11char_traitsIcESaIcEE11_M_is_localEv.exit.thread.i.i5.i, label %_ZNKSt7__cxx1112basic_stringIcSt11char_traitsIcESaIcEE11_M_is_localEv.exit.i.i4.i

_ZNKSt7__cxx1112basic_stringIcSt11char_traitsIcESaIcEE11_M_is_localEv.exit.thread.i.i5.i: ; preds = %38
  %42 = load i64, ptr %29, align 8, !tbaa !55
  %43 = icmp ult i64 %42, 16
  call void @llvm.assume(i1 %43)
  br label %_ZNSt7__cxx1112basic_stringIcSt11char_traitsIcESaIcEED2Ev.exit6.i

_ZNKSt7__cxx1112basic_stringIcSt11char_traitsIcESaIcEE11_M_is_localEv.exit.i.i4.i: ; preds = %38
  %44 = load i64, ptr %28, align 8, !tbaa !57
  %45 = add i64 %44, 1
  call void @_ZdlPvm(ptr noundef %40, i64 noundef %45) #32
  br label %_ZNSt7__cxx1112basic_stringIcSt11char_traitsIcESaIcEED2Ev.exit6.i

common.resume:                                    ; preds = %25, %_ZNSt13random_deviceD2Ev.exit9, %_ZNSt7__cxx1112basic_stringIcSt11char_traitsIcESaIcEED2Ev.exit6.i
  %common.resume.op = phi { ptr, i32 } [ %39, %_ZNSt7__cxx1112basic_stringIcSt11char_traitsIcESaIcEED2Ev.exit6.i ], [ %51, %_ZNSt13random_deviceD2Ev.exit9 ], [ %26, %25 ]
  resume { ptr, i32 } %common.resume.op

_ZNSt7__cxx1112basic_stringIcSt11char_traitsIcESaIcEED2Ev.exit6.i: ; preds = %_ZNKSt7__cxx1112basic_stringIcSt11char_traitsIcESaIcEE11_M_is_localEv.exit.i.i4.i, %_ZNKSt7__cxx1112basic_stringIcSt11char_traitsIcESaIcEE11_M_is_localEv.exit.thread.i.i5.i
  call void @llvm.lifetime.end.p0(i64 32, ptr nonnull %2) #33
  br label %common.resume

_ZNSt13random_deviceC2Ev.exit:                    ; preds = %_ZNKSt7__cxx1112basic_stringIcSt11char_traitsIcESaIcEE11_M_is_localEv.exit.thread.i.i.i, %_ZNKSt7__cxx1112basic_stringIcSt11char_traitsIcESaIcEE11_M_is_localEv.exit.i.i.i
  call void @llvm.lifetime.end.p0(i64 32, ptr nonnull %2) #33
  %46 = invoke noundef i32 @_ZNSt13random_device9_M_getvalEv(ptr noundef nonnull align 8 dereferenceable(5000) %4)
          to label %_ZNSt13random_deviceclEv.exit unwind label %50

_ZNSt13random_deviceclEv.exit:                    ; preds = %_ZNSt13random_deviceC2Ev.exit
  invoke void @_ZNSt13random_device7_M_finiEv(ptr noundef nonnull align 8 dereferenceable(5000) %4)
          to label %_ZNSt13random_deviceD2Ev.exit8 unwind label %47

47:                                               ; preds = %_ZNSt13random_deviceclEv.exit
  %48 = landingpad { ptr, i32 }
          catch ptr null
  %49 = extractvalue { ptr, i32 } %48, 0
  call void @__clang_call_terminate(ptr %49) #34
  unreachable

_ZNSt13random_deviceD2Ev.exit8:                   ; preds = %_ZNSt13random_deviceclEv.exit
  call void @llvm.lifetime.end.p0(i64 5000, ptr nonnull %4) #33
  br label %55

50:                                               ; preds = %_ZNSt13random_deviceC2Ev.exit
  %51 = landingpad { ptr, i32 }
          cleanup
  invoke void @_ZNSt13random_device7_M_finiEv(ptr noundef nonnull align 8 dereferenceable(5000) %4)
          to label %_ZNSt13random_deviceD2Ev.exit9 unwind label %52

52:                                               ; preds = %50
  %53 = landingpad { ptr, i32 }
          catch ptr null
  %54 = extractvalue { ptr, i32 } %53, 0
  call void @__clang_call_terminate(ptr %54) #34
  unreachable

_ZNSt13random_deviceD2Ev.exit9:                   ; preds = %50
  call void @llvm.lifetime.end.p0(i64 5000, ptr nonnull %4) #33
  br label %common.resume

55:                                               ; preds = %1, %_ZNSt13random_deviceD2Ev.exit8, %22
  %.05 = phi i32 [ %24, %22 ], [ %46, %_ZNSt13random_deviceD2Ev.exit8 ], [ %0, %1 ]
  ret i32 %.05
}